; Function Attrs: mustprogress uwtable
define noundef ptr @_ZNK13ATapDataModel13registerTableEv(ptr nocapture noundef nonnull readonly align 8 dereferenceable(120) %0) local_unnamed_addr #0 align 2 {
  %2 = getelementptr inbounds i8, ptr %0, i64 80
  %3 = load i32, ptr %2, align 8
  %4 = icmp sgt i32 %3, -1
  br i1 %4, label %5, label %7

5:                                                ; preds = %1
  %6 = tail call ptr @get_conversation_by_proto_id(i32 noundef %3)
  br label %7

7:                                                ; preds = %1, %5
  %.0 = phi ptr [ %6, %5 ], [ null, %1 ]
  ret ptr %.0
}